; Function Attrs: nounwind ssp uwtable
define dso_local range(i32 -1, 1) i32 @crypto_aead_aes256gcm_encrypt_detached(ptr noundef nonnull %0, ptr noundef nonnull %1, ptr noundef captures(address_is_null) %2, ptr noundef readonly captures(none) %3, i64 noundef %4, ptr noundef captures(address_is_null) %5, i64 noundef %6, ptr noundef readnone captures(none) %7, ptr noundef nonnull readonly captures(none) %8, ptr noundef nonnull readonly captures(none) %9) local_unnamed_addr #3 {
  %11 = alloca %struct.crypto_aead_aes256gcm_state_, align 16
  call void @llvm.lifetime.start.p0(i64 512, ptr nonnull %11) #14
  tail call void @llvm.prefetch.p0(ptr nonnull %0, i32 0, i32 2, i32 1)
  tail call void @llvm.prefetch.p0(ptr %3, i32 0, i32 2, i32 1)
  tail call void @llvm.prefetch.p0(ptr %5, i32 0, i32 2, i32 1)
  %12 = call i32 @crypto_aead_aes256gcm_beforenm(ptr noundef %11, ptr noundef %9)
  %13 = call i32 @crypto_aead_aes256gcm_encrypt_detached_afternm(ptr noundef %0, ptr noundef %1, ptr noundef %2, ptr noundef %3, i64 noundef %4, ptr noundef %5, i64 noundef %6, ptr poison, ptr noundef %8, ptr noundef %11)
  call void @sodium_memzero(ptr noundef nonnull %11, i64 noundef 512) #14
  call void @llvm.lifetime.end.p0(i64 512, ptr nonnull %11) #14
  ret i32 %13
}